; ModuleID = '64/2284.c'
source_filename = "64/2284.c"
target datalayout = "e-m:e-p270:32:32-p271:32:32-p272:64:64-i64:64-f80:128-n8:16:32:64-S128"
target triple = "x86_64-pc-linux-gnu"

@.str = private unnamed_addr constant [3 x i8] c"%d\00", align 1
@.str.1 = private unnamed_addr constant [7 x i8] c"%d%d%d\00", align 1
@.str.2 = private unnamed_addr constant [29 x i8] c"(%d,%d,%d)-(%d,%d,%d)=%.2lf\0A\00", align 1

; Function Attrs: noinline nounwind uwtable
define dso_local i32 @main() #0 {
  %1 = alloca i32, align 4
  %2 = alloca i32, align 4
  %3 = alloca i32, align 4
  %4 = alloca i32, align 4
  %5 = alloca [100 x i32], align 16
  %6 = alloca [100 x i32], align 16
  %7 = alloca [100 x i32], align 16
  %8 = alloca [100 x i32], align 16
  %9 = alloca [100 x i32], align 16
  %10 = alloca i32, align 4
  %11 = alloca i32, align 4
  %12 = alloca i32, align 4
  %13 = alloca i32, align 4
  %14 = alloca i32, align 4
  %15 = alloca i32, align 4
  %16 = alloca [100 x double], align 16
  %17 = alloca double, align 8
  store i32 0, i32* %1, align 4
  store i32 0, i32* %4, align 4
  %18 = call i32 (i8*, ...) @__isoc99_scanf(i8* getelementptr inbounds ([3 x i8], [3 x i8]* @.str, i64 0, i64 0), i32* %2)
  store i32 0, i32* %3, align 4
  br label %19

19:                                               ; preds = %34, %0
  %20 = load i32, i32* %3, align 4
  %21 = load i32, i32* %2, align 4
  %22 = icmp slt i32 %20, %21
  br i1 %22, label %23, label %37

23:                                               ; preds = %19
  %24 = load i32, i32* %3, align 4
  %25 = sext i32 %24 to i64
  %26 = getelementptr inbounds [100 x i32], [100 x i32]* %5, i64 0, i64 %25
  %27 = load i32, i32* %3, align 4
  %28 = sext i32 %27 to i64
  %29 = getelementptr inbounds [100 x i32], [100 x i32]* %6, i64 0, i64 %28
  %30 = load i32, i32* %3, align 4
  %31 = sext i32 %30 to i64
  %32 = getelementptr inbounds [100 x i32], [100 x i32]* %7, i64 0, i64 %31
  %33 = call i32 (i8*, ...) @__isoc99_scanf(i8* getelementptr inbounds ([7 x i8], [7 x i8]* @.str.1, i64 0, i64 0), i32* %26, i32* %29, i32* %32)
  br label %34

34:                                               ; preds = %23
  %35 = load i32, i32* %3, align 4
  %36 = add nsw i32 %35, 1
  store i32 %36, i32* %3, align 4
  br label %19

37:                                               ; preds = %19
  store i32 0, i32* %12, align 4
  br label %38

38:                                               ; preds = %136, %37
  %39 = load i32, i32* %12, align 4
  %40 = load i32, i32* %2, align 4
  %41 = icmp slt i32 %39, %40
  br i1 %41, label %42, label %139

42:                                               ; preds = %38
  %43 = load i32, i32* %12, align 4
  %44 = add nsw i32 %43, 1
  store i32 %44, i32* %3, align 4
  br label %45

45:                                               ; preds = %132, %42
  %46 = load i32, i32* %3, align 4
  %47 = load i32, i32* %2, align 4
  %48 = icmp slt i32 %46, %47
  br i1 %48, label %49, label %135

49:                                               ; preds = %45
  %50 = load i32, i32* %3, align 4
  %51 = sext i32 %50 to i64
  %52 = getelementptr inbounds [100 x i32], [100 x i32]* %5, i64 0, i64 %51
  %53 = load i32, i32* %52, align 4
  %54 = load i32, i32* %12, align 4
  %55 = sext i32 %54 to i64
  %56 = getelementptr inbounds [100 x i32], [100 x i32]* %5, i64 0, i64 %55
  %57 = load i32, i32* %56, align 4
  %58 = sub nsw i32 %53, %57
  %59 = sitofp i32 %58 to double
  %60 = fmul double 1.000000e+00, %59
  %61 = load i32, i32* %3, align 4
  %62 = sext i32 %61 to i64
  %63 = getelementptr inbounds [100 x i32], [100 x i32]* %5, i64 0, i64 %62
  %64 = load i32, i32* %63, align 4
  %65 = load i32, i32* %12, align 4
  %66 = sext i32 %65 to i64
  %67 = getelementptr inbounds [100 x i32], [100 x i32]* %5, i64 0, i64 %66
  %68 = load i32, i32* %67, align 4
  %69 = sub nsw i32 %64, %68
  %70 = sitofp i32 %69 to double
  %71 = fmul double %60, %70
  %72 = load i32, i32* %3, align 4
  %73 = sext i32 %72 to i64
  %74 = getelementptr inbounds [100 x i32], [100 x i32]* %6, i64 0, i64 %73
  %75 = load i32, i32* %74, align 4
  %76 = load i32, i32* %12, align 4
  %77 = sext i32 %76 to i64
  %78 = getelementptr inbounds [100 x i32], [100 x i32]* %6, i64 0, i64 %77
  %79 = load i32, i32* %78, align 4
  %80 = sub nsw i32 %75, %79
  %81 = sitofp i32 %80 to double
  %82 = fmul double 1.000000e+00, %81
  %83 = load i32, i32* %3, align 4
  %84 = sext i32 %83 to i64
  %85 = getelementptr inbounds [100 x i32], [100 x i32]* %6, i64 0, i64 %84
  %86 = load i32, i32* %85, align 4
  %87 = load i32, i32* %12, align 4
  %88 = sext i32 %87 to i64
  %89 = getelementptr inbounds [100 x i32], [100 x i32]* %6, i64 0, i64 %88
  %90 = load i32, i32* %89, align 4
  %91 = sub nsw i32 %86, %90
  %92 = sitofp i32 %91 to double
  %93 = fmul double %82, %92
  %94 = fadd double %71, %93
  %95 = load i32, i32* %3, align 4
  %96 = sext i32 %95 to i64
  %97 = getelementptr inbounds [100 x i32], [100 x i32]* %7, i64 0, i64 %96
  %98 = load i32, i32* %97, align 4
  %99 = load i32, i32* %12, align 4
  %100 = sext i32 %99 to i64
  %101 = getelementptr inbounds [100 x i32], [100 x i32]* %7, i64 0, i64 %100
  %102 = load i32, i32* %101, align 4
  %103 = sub nsw i32 %98, %102
  %104 = sitofp i32 %103 to double
  %105 = fmul double 1.000000e+00, %104
  %106 = load i32, i32* %3, align 4
  %107 = sext i32 %106 to i64
  %108 = getelementptr inbounds [100 x i32], [100 x i32]* %7, i64 0, i64 %107
  %109 = load i32, i32* %108, align 4
  %110 = load i32, i32* %12, align 4
  %111 = sext i32 %110 to i64
  %112 = getelementptr inbounds [100 x i32], [100 x i32]* %7, i64 0, i64 %111
  %113 = load i32, i32* %112, align 4
  %114 = sub nsw i32 %109, %113
  %115 = sitofp i32 %114 to double
  %116 = fmul double %105, %115
  %117 = fadd double %94, %116
  %118 = call double @sqrt(double %117) #3
  %119 = load i32, i32* %4, align 4
  %120 = sext i32 %119 to i64
  %121 = getelementptr inbounds [100 x double], [100 x double]* %16, i64 0, i64 %120
  store double %118, double* %121, align 8
  %122 = load i32, i32* %12, align 4
  %123 = load i32, i32* %4, align 4
  %124 = sext i32 %123 to i64
  %125 = getelementptr inbounds [100 x i32], [100 x i32]* %8, i64 0, i64 %124
  store i32 %122, i32* %125, align 4
  %126 = load i32, i32* %3, align 4
  %127 = load i32, i32* %4, align 4
  %128 = sext i32 %127 to i64
  %129 = getelementptr inbounds [100 x i32], [100 x i32]* %9, i64 0, i64 %128
  store i32 %126, i32* %129, align 4
  %130 = load i32, i32* %4, align 4
  %131 = add nsw i32 %130, 1
  store i32 %131, i32* %4, align 4
  br label %132

132:                                              ; preds = %49
  %133 = load i32, i32* %3, align 4
  %134 = add nsw i32 %133, 1
  store i32 %134, i32* %3, align 4
  br label %45

135:                                              ; preds = %45
  br label %136

136:                                              ; preds = %135
  %137 = load i32, i32* %12, align 4
  %138 = add nsw i32 %137, 1
  store i32 %138, i32* %12, align 4
  br label %38

139:                                              ; preds = %38
  %140 = load i32, i32* %2, align 4
  %141 = load i32, i32* %2, align 4
  %142 = sub nsw i32 %141, 1
  %143 = mul nsw i32 %140, %142
  %144 = sdiv i32 %143, 2
  store i32 %144, i32* %15, align 4
  store i32 1, i32* %10, align 4
  br label %145

145:                                              ; preds = %225, %139
  %146 = load i32, i32* %10, align 4
  %147 = load i32, i32* %15, align 4
  %148 = add nsw i32 %147, 1
  %149 = icmp slt i32 %146, %148
  br i1 %149, label %150, label %228

150:                                              ; preds = %145
  store i32 0, i32* %4, align 4
  br label %151

151:                                              ; preds = %221, %150
  %152 = load i32, i32* %4, align 4
  %153 = load i32, i32* %15, align 4
  %154 = load i32, i32* %10, align 4
  %155 = sub nsw i32 %153, %154
  %156 = icmp slt i32 %152, %155
  br i1 %156, label %157, label %224

157:                                              ; preds = %151
  %158 = load i32, i32* %4, align 4
  %159 = sext i32 %158 to i64
  %160 = getelementptr inbounds [100 x double], [100 x double]* %16, i64 0, i64 %159
  %161 = load double, double* %160, align 8
  %162 = load i32, i32* %4, align 4
  %163 = add nsw i32 %162, 1
  %164 = sext i32 %163 to i64
  %165 = getelementptr inbounds [100 x double], [100 x double]* %16, i64 0, i64 %164
  %166 = load double, double* %165, align 8
  %167 = fcmp olt double %161, %166
  br i1 %167, label %168, label %220

168:                                              ; preds = %157
  %169 = load i32, i32* %4, align 4
  %170 = add nsw i32 %169, 1
  %171 = sext i32 %170 to i64
  %172 = getelementptr inbounds [100 x double], [100 x double]* %16, i64 0, i64 %171
  %173 = load double, double* %172, align 8
  store double %173, double* %17, align 8
  %174 = load i32, i32* %4, align 4
  %175 = sext i32 %174 to i64
  %176 = getelementptr inbounds [100 x double], [100 x double]* %16, i64 0, i64 %175
  %177 = load double, double* %176, align 8
  %178 = load i32, i32* %4, align 4
  %179 = add nsw i32 %178, 1
  %180 = sext i32 %179 to i64
  %181 = getelementptr inbounds [100 x double], [100 x double]* %16, i64 0, i64 %180
  store double %177, double* %181, align 8
  %182 = load double, double* %17, align 8
  %183 = load i32, i32* %4, align 4
  %184 = sext i32 %183 to i64
  %185 = getelementptr inbounds [100 x double], [100 x double]* %16, i64 0, i64 %184
  store double %182, double* %185, align 8
  %186 = load i32, i32* %4, align 4
  %187 = add nsw i32 %186, 1
  %188 = sext i32 %187 to i64
  %189 = getelementptr inbounds [100 x i32], [100 x i32]* %8, i64 0, i64 %188
  %190 = load i32, i32* %189, align 4
  store i32 %190, i32* %11, align 4
  %191 = load i32, i32* %4, align 4
  %192 = sext i32 %191 to i64
  %193 = getelementptr inbounds [100 x i32], [100 x i32]* %8, i64 0, i64 %192
  %194 = load i32, i32* %193, align 4
  %195 = load i32, i32* %4, align 4
  %196 = add nsw i32 %195, 1
  %197 = sext i32 %196 to i64
  %198 = getelementptr inbounds [100 x i32], [100 x i32]* %8, i64 0, i64 %197
  store i32 %194, i32* %198, align 4
  %199 = load i32, i32* %11, align 4
  %200 = load i32, i32* %4, align 4
  %201 = sext i32 %200 to i64
  %202 = getelementptr inbounds [100 x i32], [100 x i32]* %8, i64 0, i64 %201
  store i32 %199, i32* %202, align 4
  %203 = load i32, i32* %4, align 4
  %204 = add nsw i32 %203, 1
  %205 = sext i32 %204 to i64
  %206 = getelementptr inbounds [100 x i32], [100 x i32]* %9, i64 0, i64 %205
  %207 = load i32, i32* %206, align 4
  store i32 %207, i32* %11, align 4
  %208 = load i32, i32* %4, align 4
  %209 = sext i32 %208 to i64
  %210 = getelementptr inbounds [100 x i32], [100 x i32]* %9, i64 0, i64 %209
  %211 = load i32, i32* %210, align 4
  %212 = load i32, i32* %4, align 4
  %213 = add nsw i32 %212, 1
  %214 = sext i32 %213 to i64
  %215 = getelementptr inbounds [100 x i32], [100 x i32]* %9, i64 0, i64 %214
  store i32 %211, i32* %215, align 4
  %216 = load i32, i32* %11, align 4
  %217 = load i32, i32* %4, align 4
  %218 = sext i32 %217 to i64
  %219 = getelementptr inbounds [100 x i32], [100 x i32]* %9, i64 0, i64 %218
  store i32 %216, i32* %219, align 4
  br label %220

220:                                              ; preds = %168, %157
  br label %221

221:                                              ; preds = %220
  %222 = load i32, i32* %4, align 4
  %223 = add nsw i32 %222, 1
  store i32 %223, i32* %4, align 4
  br label %151

224:                                              ; preds = %151
  br label %225

225:                                              ; preds = %224
  %226 = load i32, i32* %10, align 4
  %227 = add nsw i32 %226, 1
  store i32 %227, i32* %10, align 4
  br label %145

228:                                              ; preds = %145
  store i32 0, i32* %13, align 4
  store i32 0, i32* %14, align 4
  store i32 0, i32* %4, align 4
  br label %229

229:                                              ; preds = %271, %228
  %230 = load i32, i32* %4, align 4
  %231 = load i32, i32* %15, align 4
  %232 = icmp slt i32 %230, %231
  br i1 %232, label %233, label %274

233:                                              ; preds = %229
  %234 = load i32, i32* %4, align 4
  %235 = sext i32 %234 to i64
  %236 = getelementptr inbounds [100 x i32], [100 x i32]* %8, i64 0, i64 %235
  %237 = load i32, i32* %236, align 4
  store i32 %237, i32* %13, align 4
  %238 = load i32, i32* %4, align 4
  %239 = sext i32 %238 to i64
  %240 = getelementptr inbounds [100 x i32], [100 x i32]* %9, i64 0, i64 %239
  %241 = load i32, i32* %240, align 4
  store i32 %241, i32* %14, align 4
  %242 = load i32, i32* %13, align 4
  %243 = sext i32 %242 to i64
  %244 = getelementptr inbounds [100 x i32], [100 x i32]* %5, i64 0, i64 %243
  %245 = load i32, i32* %244, align 4
  %246 = load i32, i32* %13, align 4
  %247 = sext i32 %246 to i64
  %248 = getelementptr inbounds [100 x i32], [100 x i32]* %6, i64 0, i64 %247
  %249 = load i32, i32* %248, align 4
  %250 = load i32, i32* %13, align 4
  %251 = sext i32 %250 to i64
  %252 = getelementptr inbounds [100 x i32], [100 x i32]* %7, i64 0, i64 %251
  %253 = load i32, i32* %252, align 4
  %254 = load i32, i32* %14, align 4
  %255 = sext i32 %254 to i64
  %256 = getelementptr inbounds [100 x i32], [100 x i32]* %5, i64 0, i64 %255
  %257 = load i32, i32* %256, align 4
  %258 = load i32, i32* %14, align 4
  %259 = sext i32 %258 to i64
  %260 = getelementptr inbounds [100 x i32], [100 x i32]* %6, i64 0, i64 %259
  %261 = load i32, i32* %260, align 4
  %262 = load i32, i32* %14, align 4
  %263 = sext i32 %262 to i64
  %264 = getelementptr inbounds [100 x i32], [100 x i32]* %7, i64 0, i64 %263
  %265 = load i32, i32* %264, align 4
  %266 = load i32, i32* %4, align 4
  %267 = sext i32 %266 to i64
  %268 = getelementptr inbounds [100 x double], [100 x double]* %16, i64 0, i64 %267
  %269 = load double, double* %268, align 8
  %270 = call i32 (i8*, ...) @printf(i8* getelementptr inbounds ([29 x i8], [29 x i8]* @.str.2, i64 0, i64 0), i32 %245, i32 %249, i32 %253, i32 %257, i32 %261, i32 %265, double %269)
  br label %271

271:                                              ; preds = %233
  %272 = load i32, i32* %4, align 4
  %273 = add nsw i32 %272, 1
  store i32 %273, i32* %4, align 4
  br label %229

274:                                              ; preds = %229
  ret i32 0
}

declare dso_local i32 @__isoc99_scanf(i8*, ...) #1

; Function Attrs: nounwind
declare dso_local double @sqrt(double) #2

declare dso_local i32 @printf(i8*, ...) #1


!llvm.module.flags = !{!0}
!llvm.ident = !{!1}

!0 = !{i32 1, !"wchar_size", i32 4}
!1 = !{!"clang version 10.0.0-4ubuntu1 "}
